target datalayout = "e-m:e-p270:32:32-p271:32:32-p272:64:64-i64:64-i128:128-f80:128-n8:16:32:64-S128"
target triple = "x86_64-pc-linux-gnu"

%struct.LodePNGDecompressSettings = type { i32, i32, i64, ptr, ptr, ptr }
%"class.std::__cxx11::basic_string" = type { %"struct.std::__cxx11::basic_string<char>::_Alloc_hider", i64, %union.anon }
%"struct.std::__cxx11::basic_string<char>::_Alloc_hider" = type { ptr }
%union.anon = type { i64, [8 x i8] }
%struct.Data = type { %"class.std::__cxx11::basic_string", %"class.std::vector", %"class.std::vector", i32, i32, %"class.lodepng::State", i32, i8, i8, i8, i8 }
%"class.std::vector" = type { %"struct.std::_Vector_base" }
%"struct.std::_Vector_base" = type { %"struct.std::_Vector_base<unsigned char, std::allocator<unsigned char>>::_Vector_impl" }
%"struct.std::_Vector_base<unsigned char, std::allocator<unsigned char>>::_Vector_impl" = type { %"struct.std::_Vector_base<unsigned char, std::allocator<unsigned char>>::_Vector_impl_data" }
%"struct.std::_Vector_base<unsigned char, std::allocator<unsigned char>>::_Vector_impl_data" = type { ptr, ptr, ptr }
%"class.lodepng::State" = type { %struct.LodePNGState }
%struct.LodePNGState = type { %struct.LodePNGDecoderSettings, %struct.LodePNGEncoderSettings, %struct.LodePNGColorMode, %struct.LodePNGInfo, i32 }
%struct.LodePNGDecoderSettings = type { %struct.LodePNGDecompressSettings, i32, i32, i32, i32, i32, i32, i64, i64 }
%struct.LodePNGEncoderSettings = type { %struct.LodePNGCompressSettings, i32, i32, i32, ptr, i32, i32, i32 }
%struct.LodePNGCompressSettings = type { i32, i32, i32, i32, i32, i32, ptr, ptr, ptr }
%struct.LodePNGColorMode = type { i32, i32, ptr, i64, i32, i32, i32, i32 }
%struct.LodePNGInfo = type { i32, i32, i32, %struct.LodePNGColorMode, i32, i32, i32, i32, i64, ptr, ptr, i64, ptr, ptr, ptr, ptr, i32, ptr, i32, i32, %struct.LodePNGTime, i32, i32, i32, i32, i32, i32, i32, i32, i32, i32, i32, i32, i32, i32, i32, i32, i32, i32, ptr, ptr, i32, i32, i32, i32, i32, i32, i32, i32, i32, i32, i32, i32, i32, i32, i32, i32, i32, i32, i32, i32, i32, i32, i32, i32, i32, [3 x ptr], [3 x i64] }
%struct.LodePNGTime = type { i32, i32, i32, i32, i32, i32 }
%struct.Options = type <{ i8, i8, i8, i8, i8, i8, i8, i8, i8, i8, i8, i8, i8, [3 x i8], i32, i8, [3 x i8], i32, i32, i8, i8, i8, i8, i8, [3 x i8] }>

; Function Attrs: mustprogress uwtable
define void @_Z9showInfosR4DataRK7Options(ptr noundef nonnull align 8 dereferenceable(736) %0, ptr noundef nonnull align 4 dereferenceable(37) %1) #4 {
  %3 = alloca ptr, align 8
  %4 = alloca ptr, align 8
  store ptr %0, ptr %3, align 8, !tbaa !21
  store ptr %1, ptr %4, align 8, !tbaa !23
  %5 = load ptr, ptr %4, align 8, !tbaa !23
  %6 = getelementptr inbounds nuw %struct.Options, ptr %5, i32 0, i32 2
  %7 = load i8, ptr %6, align 2, !tbaa !274, !range !48, !noundef !49
  %8 = trunc i8 %7 to i1
  br i1 %8, label %9, label %12

9:                                                ; preds = %2
  %10 = load ptr, ptr %3, align 8, !tbaa !21
  %11 = load ptr, ptr %4, align 8, !tbaa !23
  call void @_Z21showSingleLineSummaryR4DataRK7Options(ptr noundef nonnull align 8 dereferenceable(736) %10, ptr noundef nonnull align 4 dereferenceable(37) %11)
  br label %12

12:                                               ; preds = %9, %2
  %13 = load ptr, ptr %4, align 8, !tbaa !23
  %14 = getelementptr inbounds nuw %struct.Options, ptr %13, i32 0, i32 4
  %15 = load i8, ptr %14, align 4, !tbaa !275, !range !48, !noundef !49
  %16 = trunc i8 %15 to i1
  br i1 %16, label %17, label %20

17:                                               ; preds = %12
  %18 = load ptr, ptr %3, align 8, !tbaa !21
  %19 = load ptr, ptr %4, align 8, !tbaa !23
  call void @_Z10showErrorsR4DataRK7Options(ptr noundef nonnull align 8 dereferenceable(736) %18, ptr noundef nonnull align 4 dereferenceable(37) %19)
  br label %20

20:                                               ; preds = %17, %12
  %21 = load ptr, ptr %4, align 8, !tbaa !23
  %22 = getelementptr inbounds nuw %struct.Options, ptr %21, i32 0, i32 7
  %23 = load i8, ptr %22, align 1, !tbaa !230, !range !48, !noundef !49
  %24 = trunc i8 %23 to i1
  br i1 %24, label %25, label %27

25:                                               ; preds = %20
  %26 = load ptr, ptr %3, align 8, !tbaa !21
  call void @_Z8showExifR4Data(ptr noundef nonnull align 8 dereferenceable(736) %26)
  br label %27

27:                                               ; preds = %25, %20
  %28 = load ptr, ptr %4, align 8, !tbaa !23
  %29 = getelementptr inbounds nuw %struct.Options, ptr %28, i32 0, i32 3
  %30 = load i8, ptr %29, align 1, !tbaa !194, !range !48, !noundef !49
  %31 = trunc i8 %30 to i1
  br i1 %31, label %47, label %32

32:                                               ; preds = %27
  %33 = load ptr, ptr %4, align 8, !tbaa !23
  %34 = getelementptr inbounds nuw %struct.Options, ptr %33, i32 0, i32 5
  %35 = load i8, ptr %34, align 1, !tbaa !226, !range !48, !noundef !49
  %36 = trunc i8 %35 to i1
  br i1 %36, label %47, label %37

37:                                               ; preds = %32
  %38 = load ptr, ptr %4, align 8, !tbaa !23
  %39 = getelementptr inbounds nuw %struct.Options, ptr %38, i32 0, i32 6
  %40 = load i8, ptr %39, align 2, !tbaa !227, !range !48, !noundef !49
  %41 = trunc i8 %40 to i1
  br i1 %41, label %47, label %42

42:                                               ; preds = %37
  %43 = load ptr, ptr %4, align 8, !tbaa !23
  %44 = getelementptr inbounds nuw %struct.Options, ptr %43, i32 0, i32 8
  %45 = load i8, ptr %44, align 4, !tbaa !231, !range !48, !noundef !49
  %46 = trunc i8 %45 to i1
  br i1 %46, label %47, label %50

47:                                               ; preds = %42, %37, %32, %27
  %48 = load ptr, ptr %3, align 8, !tbaa !21
  %49 = load ptr, ptr %4, align 8, !tbaa !23
  call void @_Z14showHeaderInfoR4DataRK7Options(ptr noundef nonnull align 8 dereferenceable(736) %48, ptr noundef nonnull align 4 dereferenceable(37) %49)
  br label %50

50:                                               ; preds = %47, %42
  %51 = load ptr, ptr %4, align 8, !tbaa !23
  %52 = getelementptr inbounds nuw %struct.Options, ptr %51, i32 0, i32 9
  %53 = load i8, ptr %52, align 1, !tbaa !147, !range !48, !noundef !49
  %54 = trunc i8 %53 to i1
  br i1 %54, label %55, label %58

55:                                               ; preds = %50
  %56 = load ptr, ptr %3, align 8, !tbaa !21
  %57 = load ptr, ptr %4, align 8, !tbaa !23
  call void @_Z14showColorStatsR4DataRK7Options(ptr noundef nonnull align 8 dereferenceable(736) %56, ptr noundef nonnull align 4 dereferenceable(37) %57)
  br label %58

58:                                               ; preds = %55, %50
  %59 = load ptr, ptr %4, align 8, !tbaa !23
  %60 = getelementptr inbounds nuw %struct.Options, ptr %59, i32 0, i32 10
  %61 = load i8, ptr %60, align 2, !tbaa !202, !range !48, !noundef !49
  %62 = trunc i8 %61 to i1
  br i1 %62, label %63, label %66

63:                                               ; preds = %58
  %64 = load ptr, ptr %3, align 8, !tbaa !21
  %65 = load ptr, ptr %4, align 8, !tbaa !23
  call void @_Z11showPNGInfoR4DataRK7Options(ptr noundef nonnull align 8 dereferenceable(736) %64, ptr noundef nonnull align 4 dereferenceable(37) %65)
  br label %66

66:                                               ; preds = %63, %58
  %67 = load ptr, ptr %4, align 8, !tbaa !23
  %68 = getelementptr inbounds nuw %struct.Options, ptr %67, i32 0, i32 11
  %69 = load i8, ptr %68, align 1, !tbaa !276, !range !48, !noundef !49
  %70 = trunc i8 %69 to i1
  br i1 %70, label %71, label %74

71:                                               ; preds = %66
  %72 = load ptr, ptr %3, align 8, !tbaa !21
  %73 = load ptr, ptr %4, align 8, !tbaa !23
  call void @_Z14displayPaletteR4DataRK7Options(ptr noundef nonnull align 8 dereferenceable(736) %72, ptr noundef nonnull align 4 dereferenceable(37) %73)
  br label %74

74:                                               ; preds = %71, %66
  %75 = load ptr, ptr %4, align 8, !tbaa !23
  %76 = getelementptr inbounds nuw %struct.Options, ptr %75, i32 0, i32 19
  %77 = load i8, ptr %76, align 4, !tbaa !277, !range !48, !noundef !49
  %78 = trunc i8 %77 to i1
  br i1 %78, label %84, label %79

79:                                               ; preds = %74
  %80 = load ptr, ptr %4, align 8, !tbaa !23
  %81 = getelementptr inbounds nuw %struct.Options, ptr %80, i32 0, i32 20
  %82 = load i8, ptr %81, align 1, !tbaa !59, !range !48, !noundef !49
  %83 = trunc i8 %82 to i1
  br i1 %83, label %84, label %87

84:                                               ; preds = %79, %74
  %85 = load ptr, ptr %3, align 8, !tbaa !21
  %86 = load ptr, ptr %4, align 8, !tbaa !23
  call void @_Z17displayChunkNamesR4DataRK7Options(ptr noundef nonnull align 8 dereferenceable(736) %85, ptr noundef nonnull align 4 dereferenceable(37) %86)
  br label %87

87:                                               ; preds = %84, %79
  %88 = load ptr, ptr %4, align 8, !tbaa !23
  %89 = getelementptr inbounds nuw %struct.Options, ptr %88, i32 0, i32 21
  %90 = load i8, ptr %89, align 2, !tbaa !278, !range !48, !noundef !49
  %91 = trunc i8 %90 to i1
  br i1 %91, label %92, label %95

92:                                               ; preds = %87
  %93 = load ptr, ptr %3, align 8, !tbaa !21
  %94 = load ptr, ptr %4, align 8, !tbaa !23
  call void @_Z18displayFilterTypesR4DataRK7Options(ptr noundef nonnull align 8 dereferenceable(736) %93, ptr noundef nonnull align 4 dereferenceable(37) %94)
  br label %95

95:                                               ; preds = %92, %87
  %96 = load ptr, ptr %4, align 8, !tbaa !23
  %97 = getelementptr inbounds nuw %struct.Options, ptr %96, i32 0, i32 22
  %98 = load i8, ptr %97, align 1, !tbaa !279, !range !48, !noundef !49
  %99 = trunc i8 %98 to i1
  br i1 %99, label %100, label %102

100:                                              ; preds = %95
  %101 = load ptr, ptr %3, align 8, !tbaa !21
  call void @_Z13printZlibInfoR4Data(ptr noundef nonnull align 8 dereferenceable(736) %101)
  br label %102

102:                                              ; preds = %100, %95
  %103 = load ptr, ptr %4, align 8, !tbaa !23
  %104 = getelementptr inbounds nuw %struct.Options, ptr %103, i32 0, i32 15
  %105 = load i8, ptr %104, align 4, !tbaa !280, !range !48, !noundef !49
  %106 = trunc i8 %105 to i1
  br i1 %106, label %107, label %110

107:                                              ; preds = %102
  %108 = load ptr, ptr %3, align 8, !tbaa !21
  %109 = load ptr, ptr %4, align 8, !tbaa !23
  call void @_Z10showRenderR4DataRK7Options(ptr noundef nonnull align 8 dereferenceable(736) %108, ptr noundef nonnull align 4 dereferenceable(37) %109)
  br label %110

110:                                              ; preds = %107, %102
  %111 = load ptr, ptr %3, align 8, !tbaa !21
  %112 = getelementptr inbounds nuw %struct.Data, ptr %111, i32 0, i32 6
  %113 = load i32, ptr %112, align 8, !tbaa !50
  %114 = icmp ne i32 %113, 0
  br i1 %114, label %115, label %118

115:                                              ; preds = %110
  %116 = load ptr, ptr %3, align 8, !tbaa !21
  %117 = load ptr, ptr %4, align 8, !tbaa !23
  call void @_Z9showErrorR4DataRK7Options(ptr noundef nonnull align 8 dereferenceable(736) %116, ptr noundef nonnull align 4 dereferenceable(37) %117)
  br label %118

118:                                              ; preds = %115, %110
  ret void
}