; Function Attrs: mustprogress uwtable
define void @_Z9showInfosR4DataRK7Options(ptr noundef nonnull align 8 dereferenceable(736) %0, ptr noundef nonnull readonly align 4 captures(none) dereferenceable(37) %1) local_unnamed_addr #3 {
  %3 = getelementptr inbounds nuw i8, ptr %1, i64 2
  %4 = load i8, ptr %3, align 2, !tbaa !315, !range !72, !noundef !73
  %5 = trunc nuw i8 %4 to i1
  br i1 %5, label %6, label %7

6:                                                ; preds = %2
  tail call void @_Z21showSingleLineSummaryR4DataRK7Options(ptr noundef nonnull align 8 dereferenceable(736) %0, ptr noundef nonnull align 4 dereferenceable(37) %1)
  br label %7

7:                                                ; preds = %6, %2
  %8 = getelementptr inbounds nuw i8, ptr %1, i64 4
  %9 = load i8, ptr %8, align 4, !tbaa !316, !range !72, !noundef !73
  %10 = trunc nuw i8 %9 to i1
  br i1 %10, label %11, label %12

11:                                               ; preds = %7
  tail call void @_Z10showErrorsR4DataRK7Options(ptr noundef nonnull align 8 dereferenceable(736) %0, ptr noundef nonnull align 4 dereferenceable(37) %1)
  br label %12

12:                                               ; preds = %11, %7
  %13 = getelementptr inbounds nuw i8, ptr %1, i64 7
  %14 = load i8, ptr %13, align 1, !tbaa !261, !range !72, !noundef !73
  %15 = trunc nuw i8 %14 to i1
  br i1 %15, label %16, label %17

16:                                               ; preds = %12
  tail call void @_Z8showExifR4Data(ptr noundef nonnull align 8 dereferenceable(736) %0)
  br label %17

17:                                               ; preds = %16, %12
  %18 = getelementptr inbounds nuw i8, ptr %1, i64 3
  %19 = load i8, ptr %18, align 1, !tbaa !225, !range !72, !noundef !73
  %20 = trunc nuw i8 %19 to i1
  br i1 %20, label %33, label %21

21:                                               ; preds = %17
  %22 = getelementptr inbounds nuw i8, ptr %1, i64 5
  %23 = load i8, ptr %22, align 1, !tbaa !257, !range !72, !noundef !73
  %24 = trunc nuw i8 %23 to i1
  br i1 %24, label %33, label %25

25:                                               ; preds = %21
  %26 = getelementptr inbounds nuw i8, ptr %1, i64 6
  %27 = load i8, ptr %26, align 2, !tbaa !258, !range !72, !noundef !73
  %28 = trunc nuw i8 %27 to i1
  br i1 %28, label %33, label %29

29:                                               ; preds = %25
  %30 = getelementptr inbounds nuw i8, ptr %1, i64 8
  %31 = load i8, ptr %30, align 4, !tbaa !262, !range !72, !noundef !73
  %32 = trunc nuw i8 %31 to i1
  br i1 %32, label %33, label %34

33:                                               ; preds = %29, %25, %21, %17
  tail call void @_Z14showHeaderInfoR4DataRK7Options(ptr noundef nonnull align 8 dereferenceable(736) %0, ptr noundef nonnull align 4 dereferenceable(37) %1)
  br label %34

34:                                               ; preds = %33, %29
  %35 = getelementptr inbounds nuw i8, ptr %1, i64 9
  %36 = load i8, ptr %35, align 1, !tbaa !155, !range !72, !noundef !73
  %37 = trunc nuw i8 %36 to i1
  br i1 %37, label %38, label %39

38:                                               ; preds = %34
  tail call void @_Z14showColorStatsR4DataRK7Options(ptr noundef nonnull align 8 dereferenceable(736) %0, ptr noundef nonnull align 4 dereferenceable(37) %1)
  br label %39

39:                                               ; preds = %38, %34
  %40 = getelementptr inbounds nuw i8, ptr %1, i64 10
  %41 = load i8, ptr %40, align 2, !tbaa !233, !range !72, !noundef !73
  %42 = trunc nuw i8 %41 to i1
  br i1 %42, label %43, label %44

43:                                               ; preds = %39
  tail call void @_Z11showPNGInfoR4DataRK7Options(ptr noundef nonnull align 8 dereferenceable(736) %0, ptr noundef nonnull align 4 dereferenceable(37) %1)
  br label %44

44:                                               ; preds = %43, %39
  %45 = getelementptr inbounds nuw i8, ptr %1, i64 11
  %46 = load i8, ptr %45, align 1, !tbaa !317, !range !72, !noundef !73
  %47 = trunc nuw i8 %46 to i1
  br i1 %47, label %48, label %49

48:                                               ; preds = %44
  tail call void @_Z14displayPaletteR4DataRK7Options(ptr noundef nonnull align 8 dereferenceable(736) %0, ptr noundef nonnull align 4 dereferenceable(37) %1)
  br label %49

49:                                               ; preds = %48, %44
  %50 = getelementptr inbounds nuw i8, ptr %1, i64 32
  %51 = load i8, ptr %50, align 4, !tbaa !318, !range !72, !noundef !73
  %52 = trunc nuw i8 %51 to i1
  br i1 %52, label %57, label %53

53:                                               ; preds = %49
  %54 = getelementptr inbounds nuw i8, ptr %1, i64 33
  %55 = load i8, ptr %54, align 1, !tbaa !84, !range !72, !noundef !73
  %56 = trunc nuw i8 %55 to i1
  br i1 %56, label %57, label %58

57:                                               ; preds = %53, %49
  tail call void @_Z17displayChunkNamesR4DataRK7Options(ptr noundef nonnull align 8 dereferenceable(736) %0, ptr noundef nonnull align 4 dereferenceable(37) %1)
  br label %58

58:                                               ; preds = %57, %53
  %59 = getelementptr inbounds nuw i8, ptr %1, i64 34
  %60 = load i8, ptr %59, align 2, !tbaa !319, !range !72, !noundef !73
  %61 = trunc nuw i8 %60 to i1
  br i1 %61, label %62, label %63

62:                                               ; preds = %58
  tail call void @_Z18displayFilterTypesR4DataRK7Options(ptr noundef nonnull align 8 dereferenceable(736) %0, ptr noundef nonnull align 4 dereferenceable(37) %1)
  br label %63

63:                                               ; preds = %62, %58
  %64 = getelementptr inbounds nuw i8, ptr %1, i64 35
  %65 = load i8, ptr %64, align 1, !tbaa !320, !range !72, !noundef !73
  %66 = trunc nuw i8 %65 to i1
  br i1 %66, label %67, label %68

67:                                               ; preds = %63
  tail call void @_Z13printZlibInfoR4Data(ptr noundef nonnull align 8 dereferenceable(736) %0)
  br label %68

68:                                               ; preds = %67, %63
  %69 = getelementptr inbounds nuw i8, ptr %1, i64 20
  %70 = load i8, ptr %69, align 4, !tbaa !321, !range !72, !noundef !73
  %71 = trunc nuw i8 %70 to i1
  br i1 %71, label %72, label %73

72:                                               ; preds = %68
  tail call void @_Z10showRenderR4DataRK7Options(ptr noundef nonnull align 8 dereferenceable(736) %0, ptr noundef nonnull align 4 dereferenceable(37) %1)
  br label %73

73:                                               ; preds = %72, %68
  %74 = getelementptr inbounds nuw i8, ptr %0, i64 728
  %75 = load i32, ptr %74, align 8, !tbaa !74
  %.not = icmp eq i32 %75, 0
  br i1 %.not, label %77, label %76

76:                                               ; preds = %73
  tail call void @_Z9showErrorR4DataRK7Options(ptr noundef nonnull align 8 dereferenceable(736) %0, ptr noundef nonnull align 4 dereferenceable(37) %1)
  br label %77

77:                                               ; preds = %76, %73
  ret void
}